target datalayout = "e-m:e-p270:32:32-p271:32:32-p272:64:64-i64:64-i128:128-f80:128-n8:16:32:64-S128"
target triple = "x86_64-unknown-linux-gnu"

%"class.std::__shared_count" = type { ptr }
%"class.arrow::ArrayBuilder" = type { ptr, ptr, i64, %"class.arrow::TypedBufferBuilder", i64, i64, i64, %"class.std::vector.14" }
%"class.arrow::TypedBufferBuilder" = type { %"class.arrow::BufferBuilder", i64, i64 }
%"class.arrow::BufferBuilder" = type { %"class.std::shared_ptr.11", ptr, ptr, i64, i64, i64 }
%"class.std::shared_ptr.11" = type { %"class.std::__shared_ptr.12" }
%"class.std::__shared_ptr.12" = type { ptr, %"class.std::__shared_count" }
%"class.std::vector.14" = type { %"struct.std::_Vector_base.15" }
%"struct.std::_Vector_base.15" = type { %"struct.std::_Vector_base<std::shared_ptr<arrow::ArrayBuilder>, std::allocator<std::shared_ptr<arrow::ArrayBuilder>>>::_Vector_impl" }
%"struct.std::_Vector_base<std::shared_ptr<arrow::ArrayBuilder>, std::allocator<std::shared_ptr<arrow::ArrayBuilder>>>::_Vector_impl" = type { %"struct.std::_Vector_base<std::shared_ptr<arrow::ArrayBuilder>, std::allocator<std::shared_ptr<arrow::ArrayBuilder>>>::_Vector_impl_data" }
%"struct.std::_Vector_base<std::shared_ptr<arrow::ArrayBuilder>, std::allocator<std::shared_ptr<arrow::ArrayBuilder>>>::_Vector_impl_data" = type { ptr, ptr, ptr }

; Function Attrs: mustprogress nounwind uwtable
define linkonce_odr noundef ptr @_ZN5arrow13BufferBuilder12mutable_dataEv(ptr noundef nonnull align 8 dereferenceable(56) %this) #1 comdat align 2 {
entry:
  %this.addr = alloca ptr, align 8
  store ptr %this, ptr %this.addr, align 8
  %this1 = load ptr, ptr %this.addr, align 8
  %data_ = getelementptr inbounds %"class.arrow::BufferBuilder", ptr %this1, i32 0, i32 2
  %0 = load ptr, ptr %data_, align 8
  ret ptr %0
}

; Function Attrs: mustprogress uwtable
define linkonce_odr noundef ptr @_ZN5arrow18TypedBufferBuilderIbvE12mutable_dataEv(ptr noundef nonnull align 8 dereferenceable(72) %this) #0 comdat align 2 {
entry:
  %this.addr = alloca ptr, align 8
  store ptr %this, ptr %this.addr, align 8
  %this1 = load ptr, ptr %this.addr, align 8
  %bytes_builder_ = getelementptr inbounds %"class.arrow::TypedBufferBuilder", ptr %this1, i32 0, i32 0
  %call = call noundef ptr @_ZN5arrow13BufferBuilder12mutable_dataEv(ptr noundef nonnull align 8 dereferenceable(56) %bytes_builder_)
  ret ptr %call
}

; Function Attrs: mustprogress uwtable
define linkonce_odr void @_ZN5arrow18TypedBufferBuilderIbvE12UnsafeAppendElb(ptr noundef nonnull align 8 dereferenceable(72) %this, i64 noundef %num_copies, i1 noundef zeroext %value) #0 comdat align 2 {
entry:
  %this.addr = alloca ptr, align 8
  %num_copies.addr = alloca i64, align 8
  %value.addr = alloca i8, align 1
  store ptr %this, ptr %this.addr, align 8
  store i64 %num_copies, ptr %num_copies.addr, align 8
  %frombool = zext i1 %value to i8
  store i8 %frombool, ptr %value.addr, align 1
  %this1 = load ptr, ptr %this.addr, align 8
  %call = call noundef ptr @_ZN5arrow18TypedBufferBuilderIbvE12mutable_dataEv(ptr noundef nonnull align 8 dereferenceable(72) %this1)
  %bit_length_ = getelementptr inbounds %"class.arrow::TypedBufferBuilder", ptr %this1, i32 0, i32 1
  %0 = load i64, ptr %bit_length_, align 8
  %1 = load i64, ptr %num_copies.addr, align 8
  %2 = load i8, ptr %value.addr, align 1
  %tobool = trunc i8 %2 to i1
  call void @_ZN5arrow8bit_util9SetBitsToEPhllb(ptr noundef %call, i64 noundef %0, i64 noundef %1, i1 noundef zeroext %tobool)
  %3 = load i64, ptr %num_copies.addr, align 8
  %4 = load i8, ptr %value.addr, align 1
  %tobool2 = trunc i8 %4 to i1
  %lnot = xor i1 %tobool2, true
  %conv = zext i1 %lnot to i64
  %mul = mul nsw i64 %3, %conv
  %false_count_ = getelementptr inbounds %"class.arrow::TypedBufferBuilder", ptr %this1, i32 0, i32 2
  %5 = load i64, ptr %false_count_, align 8
  %add = add nsw i64 %5, %mul
  store i64 %add, ptr %false_count_, align 8
  %6 = load i64, ptr %num_copies.addr, align 8
  %bit_length_3 = getelementptr inbounds %"class.arrow::TypedBufferBuilder", ptr %this1, i32 0, i32 1
  %7 = load i64, ptr %bit_length_3, align 8
  %add4 = add nsw i64 %7, %6
  store i64 %add4, ptr %bit_length_3, align 8
  ret void
}

; Function Attrs: mustprogress uwtable
define void @_ZN5arrow12ArrayBuilder13UnsafeSetNullEl(ptr noundef nonnull align 8 dereferenceable(144) %this, i64 noundef %length) #0 align 2 {
entry:
  %this.addr = alloca ptr, align 8
  %length.addr = alloca i64, align 8
  store ptr %this, ptr %this.addr, align 8
  store i64 %length, ptr %length.addr, align 8
  %this1 = load ptr, ptr %this.addr, align 8
  %0 = load i64, ptr %length.addr, align 8
  %length_ = getelementptr inbounds %"class.arrow::ArrayBuilder", ptr %this1, i32 0, i32 5
  %1 = load i64, ptr %length_, align 8
  %add = add nsw i64 %1, %0
  store i64 %add, ptr %length_, align 8
  %2 = load i64, ptr %length.addr, align 8
  %null_count_ = getelementptr inbounds %"class.arrow::ArrayBuilder", ptr %this1, i32 0, i32 4
  %3 = load i64, ptr %null_count_, align 8
  %add2 = add nsw i64 %3, %2
  store i64 %add2, ptr %null_count_, align 8
  %null_bitmap_builder_ = getelementptr inbounds %"class.arrow::ArrayBuilder", ptr %this1, i32 0, i32 3
  %4 = load i64, ptr %length.addr, align 8
  call void @_ZN5arrow18TypedBufferBuilderIbvE12UnsafeAppendElb(ptr noundef nonnull align 8 dereferenceable(72) %null_bitmap_builder_, i64 noundef %4, i1 noundef zeroext false)
  ret void
}