; Function Attrs: mustprogress uwtable
define void @_ZN5arrow12ArrayBuilder13UnsafeSetNullEl(ptr nocapture noundef nonnull align 8 dereferenceable(144) %this, i64 noundef %length) local_unnamed_addr #0 align 2 {
entry:
  %null_count_ = getelementptr inbounds i8, ptr %this, i64 96
  %0 = load <2 x i64>, ptr %null_count_, align 8
  %1 = insertelement <2 x i64> poison, i64 %length, i64 0
  %2 = shufflevector <2 x i64> %1, <2 x i64> poison, <2 x i32> zeroinitializer
  %3 = add nsw <2 x i64> %0, %2
  store <2 x i64> %3, ptr %null_count_, align 8
  %data_.i.i.i = getelementptr inbounds i8, ptr %this, i64 48
  %4 = load ptr, ptr %data_.i.i.i, align 8
  %bit_length_.i = getelementptr inbounds i8, ptr %this, i64 80
  %5 = load i64, ptr %bit_length_.i, align 8
  tail call void @_ZN5arrow8bit_util9SetBitsToEPhllb(ptr noundef %4, i64 noundef %5, i64 noundef %length, i1 noundef zeroext false)
  %6 = load <2 x i64>, ptr %bit_length_.i, align 8
  %7 = add nsw <2 x i64> %6, %2
  store <2 x i64> %7, ptr %bit_length_.i, align 8
  ret void
}